; Function Attrs: mustprogress uwtable
define hidden void @_ZN3nla7grobner6add_eqERN2dd3pddEPN18dependency_managerIN25scoped_dependency_managerIjE6configEE10dependencyE(ptr noundef nonnull align 8 dereferenceable(1448) %0, ptr noundef nonnull align 8 dereferenceable(16) %1, ptr noundef %2) local_unnamed_addr #4 align 2 personality ptr @__gxx_personality_v0 {
  %4 = alloca ptr, align 8
  %5 = alloca i32, align 4
  %6 = alloca %"class.dd::pdd", align 8
  store ptr %2, ptr %4, align 8, !tbaa !400
  call void @llvm.lifetime.start.p0(i64 4, ptr nonnull %5) #26
  call void @llvm.lifetime.start.p0(i64 16, ptr nonnull %6) #26
  %7 = getelementptr inbounds nuw i8, ptr %0, i64 184
  store i32 0, ptr %6, align 8, !tbaa !229
  %8 = getelementptr inbounds nuw i8, ptr %6, i64 8
  store ptr %7, ptr %8, align 8, !tbaa !231
  %9 = load ptr, ptr %7, align 8, !tbaa !232
  %10 = load i32, ptr %9, align 4
  %11 = and i32 %10, 1023
  %.not.i.i.i = icmp eq i32 %11, 1023
  br i1 %.not.i.i.i, label %_ZN2dd3pddC2ERNS_11pdd_managerE.exit, label %12

12:                                               ; preds = %3
  %13 = add i32 %10, 1
  %14 = and i32 %13, 1023
  %15 = and i32 %10, -1024
  %16 = or disjoint i32 %14, %15
  store i32 %16, ptr %9, align 4
  br label %_ZN2dd3pddC2ERNS_11pdd_managerE.exit

_ZN2dd3pddC2ERNS_11pdd_managerE.exit:             ; preds = %3, %12
  %17 = getelementptr inbounds nuw i8, ptr %0, i64 1136
  invoke void @_ZN2dd6solver8simplifyERNS_3pddERPN18dependency_managerIN25scoped_dependency_managerIjE6configEE10dependencyE(ptr noundef nonnull align 8 dereferenceable(208) %17, ptr noundef nonnull align 8 dereferenceable(16) %1, ptr noundef nonnull align 8 dereferenceable(8) %4)
          to label %18 unwind label %24

18:                                               ; preds = %_ZN2dd3pddC2ERNS_11pdd_managerE.exit
  %19 = invoke noundef zeroext i1 @_ZN3nla7grobner9is_solvedERKN2dd3pddERjRS2_(ptr noundef nonnull align 8 dereferenceable(1448) %0, ptr noundef nonnull align 8 dereferenceable(16) %1, ptr noundef nonnull align 4 dereferenceable(4) %5, ptr noundef nonnull align 8 dereferenceable(16) %6)
          to label %20 unwind label %24

20:                                               ; preds = %18
  br i1 %19, label %21, label %38

21:                                               ; preds = %20
  %22 = load i32, ptr %5, align 4, !tbaa !184
  %23 = load ptr, ptr %4, align 8, !tbaa !400
  invoke void @_ZN2dd6solver9add_substEjRKNS_3pddEPN18dependency_managerIN25scoped_dependency_managerIjE6configEE10dependencyE(ptr noundef nonnull align 8 dereferenceable(208) %17, i32 noundef %22, ptr noundef nonnull align 8 dereferenceable(16) %6, ptr noundef %23)
          to label %40 unwind label %24

24:                                               ; preds = %38, %21, %18, %_ZN2dd3pddC2ERNS_11pdd_managerE.exit
  %25 = landingpad { ptr, i32 }
          cleanup
  %26 = load ptr, ptr %8, align 8, !tbaa !231
  %27 = load i32, ptr %6, align 8, !tbaa !229
  %28 = load ptr, ptr %26, align 8, !tbaa !232
  %29 = zext i32 %27 to i64
  %30 = getelementptr inbounds nuw %"struct.dd::pdd_manager::node", ptr %28, i64 %29
  %31 = load i32, ptr %30, align 4
  %32 = and i32 %31, 1023
  %.not.i.i = icmp eq i32 %32, 1023
  br i1 %.not.i.i, label %_ZN2dd3pddD2Ev.exit, label %33

33:                                               ; preds = %24
  %34 = add i32 %31, 1023
  %35 = and i32 %34, 1023
  %36 = and i32 %31, -1024
  %37 = or disjoint i32 %35, %36
  store i32 %37, ptr %30, align 4
  br label %_ZN2dd3pddD2Ev.exit

_ZN2dd3pddD2Ev.exit:                              ; preds = %24, %33
  call void @llvm.lifetime.end.p0(i64 16, ptr nonnull %6) #26
  call void @llvm.lifetime.end.p0(i64 4, ptr nonnull %5) #26
  resume { ptr, i32 } %25

38:                                               ; preds = %20
  %39 = load ptr, ptr %4, align 8, !tbaa !400
  invoke void @_ZN2dd6solver3addERKNS_3pddEPN18dependency_managerIN25scoped_dependency_managerIjE6configEE10dependencyE(ptr noundef nonnull align 8 dereferenceable(208) %17, ptr noundef nonnull align 8 dereferenceable(16) %1, ptr noundef %39)
          to label %40 unwind label %24

40:                                               ; preds = %38, %21
  %41 = load ptr, ptr %8, align 8, !tbaa !231
  %42 = load i32, ptr %6, align 8, !tbaa !229
  %43 = load ptr, ptr %41, align 8, !tbaa !232
  %44 = zext i32 %42 to i64
  %45 = getelementptr inbounds nuw %"struct.dd::pdd_manager::node", ptr %43, i64 %44
  %46 = load i32, ptr %45, align 4
  %47 = and i32 %46, 1023
  %.not.i.i5 = icmp eq i32 %47, 1023
  br i1 %.not.i.i5, label %_ZN2dd3pddD2Ev.exit6, label %48

48:                                               ; preds = %40
  %49 = add i32 %46, 1023
  %50 = and i32 %49, 1023
  %51 = and i32 %46, -1024
  %52 = or disjoint i32 %50, %51
  store i32 %52, ptr %45, align 4
  br label %_ZN2dd3pddD2Ev.exit6

_ZN2dd3pddD2Ev.exit6:                             ; preds = %40, %48
  call void @llvm.lifetime.end.p0(i64 16, ptr nonnull %6) #26
  call void @llvm.lifetime.end.p0(i64 4, ptr nonnull %5) #26
  ret void
}